; Function Attrs: mustprogress uwtable
define noundef double @_ZNK8QuantLib15LinearTsrPricer10capletRateEd(ptr noundef nonnull align 8 dereferenceable(360) %this, double noundef %effectiveCap) unnamed_addr #7 align 2 {
entry:
  %vtable = load ptr, ptr %this, align 8, !tbaa !35
  %vfn = getelementptr inbounds i8, ptr %vtable, i64 32
  %0 = load ptr, ptr %vfn, align 8
  %call = tail call noundef double %0(ptr noundef nonnull align 8 dereferenceable(360) %this, double noundef %effectiveCap)
  %coupon_ = getelementptr inbounds nuw i8, ptr %this, i64 112
  %1 = load ptr, ptr %coupon_, align 8, !tbaa !108
  %call2 = tail call noundef double @_ZNK8QuantLib6Coupon13accrualPeriodEv(ptr noundef nonnull align 8 dereferenceable(88) %1)
  %discountCurvePaymentDiscount_ = getelementptr inbounds nuw i8, ptr %this, i64 192
  %2 = load double, ptr %discountCurvePaymentDiscount_, align 8, !tbaa !140
  %mul = fmul double %call2, %2
  %couponDiscountRatio_ = getelementptr inbounds nuw i8, ptr %this, i64 184
  %3 = load double, ptr %couponDiscountRatio_, align 8, !tbaa !141
  %mul3 = fmul double %mul, %3
  %div = fdiv double %call, %mul3
  ret double %div
}